target datalayout = "e-m:e-p270:32:32-p271:32:32-p272:64:64-i64:64-i128:128-f80:128-n8:16:32:64-S128"
target triple = "x86_64-pc-linux-gnu"

%struct.cachedesc = type { i32, i32, i32, [4 x i32], i32 }

@SysCacheSupportingRelOidSize = internal global i32 0, align 4
@SysCacheRelationOidSize = internal global i32 0, align 4
@SysCache = internal global [85 x ptr] zeroinitializer, align 16
@.str = private unnamed_addr constant [35 x i8] c"could not initialize cache %u (%d)\00", align 1
@.str.1 = private unnamed_addr constant [11 x i8] c"syscache.c\00", align 1
@__func__.InitCatalogCache = private unnamed_addr constant [17 x i8] c"InitCatalogCache\00", align 1
@SysCacheRelationOid = internal global [85 x i32] zeroinitializer, align 16
@SysCacheSupportingRelOid = internal global [170 x i32] zeroinitializer, align 16
@CacheInitialized = internal global i8 0, align 1

; Function Attrs: inlinehint nounwind uwtable
define internal i64 @qunique(ptr noundef %0, i64 noundef %1, i64 noundef %2, ptr noundef %3) #4 {
  %5 = alloca i64, align 8
  %6 = alloca ptr, align 8
  %7 = alloca i64, align 8
  %8 = alloca i64, align 8
  %9 = alloca ptr, align 8
  %10 = alloca ptr, align 8
  %11 = alloca i64, align 8
  %12 = alloca i64, align 8
  %13 = alloca i32, align 4
  store ptr %0, ptr %6, align 8
  store i64 %1, ptr %7, align 8
  store i64 %2, ptr %8, align 8
  store ptr %3, ptr %9, align 8
  call void @llvm.lifetime.start.p0(i64 8, ptr %10) #6
  %14 = load ptr, ptr %6, align 8
  store ptr %14, ptr %10, align 8
  call void @llvm.lifetime.start.p0(i64 8, ptr %11) #6
  call void @llvm.lifetime.start.p0(i64 8, ptr %12) #6
  %15 = load i64, ptr %7, align 8
  %16 = icmp ule i64 %15, 1
  br i1 %16, label %17, label %19

17:                                               ; preds = %4
  %18 = load i64, ptr %7, align 8
  store i64 %18, ptr %5, align 8
  store i32 1, ptr %13, align 4
  br label %62

19:                                               ; preds = %4
  store i64 1, ptr %11, align 8
  store i64 0, ptr %12, align 8
  br label %20

20:                                               ; preds = %56, %19
  %21 = load i64, ptr %11, align 8
  %22 = load i64, ptr %7, align 8
  %23 = icmp ult i64 %21, %22
  br i1 %23, label %24, label %59

24:                                               ; preds = %20
  %25 = load ptr, ptr %9, align 8
  %26 = load ptr, ptr %10, align 8
  %27 = load i64, ptr %11, align 8
  %28 = load i64, ptr %8, align 8
  %29 = mul i64 %27, %28
  %30 = getelementptr inbounds nuw i8, ptr %26, i64 %29
  %31 = load ptr, ptr %10, align 8
  %32 = load i64, ptr %12, align 8
  %33 = load i64, ptr %8, align 8
  %34 = mul i64 %32, %33
  %35 = getelementptr inbounds nuw i8, ptr %31, i64 %34
  %36 = call i32 %25(ptr noundef %30, ptr noundef %35)
  %37 = icmp ne i32 %36, 0
  br i1 %37, label %38, label %55

38:                                               ; preds = %24
  %39 = load i64, ptr %12, align 8
  %40 = add i64 %39, 1
  store i64 %40, ptr %12, align 8
  %41 = load i64, ptr %11, align 8
  %42 = icmp ne i64 %40, %41
  br i1 %42, label %43, label %55

43:                                               ; preds = %38
  %44 = load ptr, ptr %10, align 8
  %45 = load i64, ptr %12, align 8
  %46 = load i64, ptr %8, align 8
  %47 = mul i64 %45, %46
  %48 = getelementptr inbounds nuw i8, ptr %44, i64 %47
  %49 = load ptr, ptr %10, align 8
  %50 = load i64, ptr %11, align 8
  %51 = load i64, ptr %8, align 8
  %52 = mul i64 %50, %51
  %53 = getelementptr inbounds nuw i8, ptr %49, i64 %52
  %54 = load i64, ptr %8, align 8
  call void @llvm.memcpy.p0.p0.i64(ptr align 1 %48, ptr align 1 %53, i64 %54, i1 false)
  br label %55

55:                                               ; preds = %43, %38, %24
  br label %56

56:                                               ; preds = %55
  %57 = load i64, ptr %11, align 8
  %58 = add i64 %57, 1
  store i64 %58, ptr %11, align 8
  br label %20, !llvm.loop !6

59:                                               ; preds = %20
  %60 = load i64, ptr %12, align 8
  %61 = add i64 %60, 1
  store i64 %61, ptr %5, align 8
  store i32 1, ptr %13, align 4
  br label %62

62:                                               ; preds = %59, %17
  call void @llvm.lifetime.end.p0(i64 8, ptr %12) #6
  call void @llvm.lifetime.end.p0(i64 8, ptr %11) #6
  call void @llvm.lifetime.end.p0(i64 8, ptr %10) #6
  %63 = load i64, ptr %5, align 8
  ret i64 %63
}

; Function Attrs: nounwind uwtable
define dso_local void @InitCatalogCache() #0 {
  %1 = alloca i32, align 4
  call void @llvm.lifetime.start.p0(i64 4, ptr %1) #6
  store i32 0, ptr @SysCacheSupportingRelOidSize, align 4
  store i32 0, ptr @SysCacheRelationOidSize, align 4
  store i32 0, ptr %1, align 4
  br label %2

2:                                                ; preds = %86, %0
  %3 = load i32, ptr %1, align 4
  %4 = icmp slt i32 %3, 85
  br i1 %4, label %5, label %89

5:                                                ; preds = %2
  %6 = load i32, ptr %1, align 4
  %7 = load i32, ptr %1, align 4
  %8 = sext i32 %7 to i64
  %9 = getelementptr inbounds [85 x %struct.cachedesc], ptr @cacheinfo, i64 0, i64 %8
  %10 = getelementptr inbounds nuw %struct.cachedesc, ptr %9, i32 0, i32 0
  %11 = load i32, ptr %10, align 16
  %12 = load i32, ptr %1, align 4
  %13 = sext i32 %12 to i64
  %14 = getelementptr inbounds [85 x %struct.cachedesc], ptr @cacheinfo, i64 0, i64 %13
  %15 = getelementptr inbounds nuw %struct.cachedesc, ptr %14, i32 0, i32 1
  %16 = load i32, ptr %15, align 4
  %17 = load i32, ptr %1, align 4
  %18 = sext i32 %17 to i64
  %19 = getelementptr inbounds [85 x %struct.cachedesc], ptr @cacheinfo, i64 0, i64 %18
  %20 = getelementptr inbounds nuw %struct.cachedesc, ptr %19, i32 0, i32 2
  %21 = load i32, ptr %20, align 8
  %22 = load i32, ptr %1, align 4
  %23 = sext i32 %22 to i64
  %24 = getelementptr inbounds [85 x %struct.cachedesc], ptr @cacheinfo, i64 0, i64 %23
  %25 = getelementptr inbounds nuw %struct.cachedesc, ptr %24, i32 0, i32 3
  %26 = getelementptr inbounds [4 x i32], ptr %25, i64 0, i64 0
  %27 = load i32, ptr %1, align 4
  %28 = sext i32 %27 to i64
  %29 = getelementptr inbounds [85 x %struct.cachedesc], ptr @cacheinfo, i64 0, i64 %28
  %30 = getelementptr inbounds nuw %struct.cachedesc, ptr %29, i32 0, i32 4
  %31 = load i32, ptr %30, align 4
  %32 = call ptr @InitCatCache(i32 noundef %6, i32 noundef %11, i32 noundef %16, i32 noundef %21, ptr noundef %26, i32 noundef %31)
  %33 = load i32, ptr %1, align 4
  %34 = sext i32 %33 to i64
  %35 = getelementptr inbounds [85 x ptr], ptr @SysCache, i64 0, i64 %34
  store ptr %32, ptr %35, align 8
  %36 = load i32, ptr %1, align 4
  %37 = sext i32 %36 to i64
  %38 = getelementptr inbounds [85 x ptr], ptr @SysCache, i64 0, i64 %37
  %39 = load ptr, ptr %38, align 8
  %40 = icmp ne ptr %39, null
  br i1 %40, label %58, label %41

41:                                               ; preds = %5
  br label %42

42:                                               ; preds = %41
  br i1 true, label %43, label %45

43:                                               ; preds = %42
  %44 = call zeroext i1 @errstart_cold(i32 noundef 21, ptr noundef null) #7
  br i1 %44, label %47, label %55

45:                                               ; preds = %42
  %46 = call zeroext i1 @errstart(i32 noundef 21, ptr noundef null)
  br i1 %46, label %47, label %55

47:                                               ; preds = %45, %43
  %48 = load i32, ptr %1, align 4
  %49 = sext i32 %48 to i64
  %50 = getelementptr inbounds [85 x %struct.cachedesc], ptr @cacheinfo, i64 0, i64 %49
  %51 = getelementptr inbounds nuw %struct.cachedesc, ptr %50, i32 0, i32 0
  %52 = load i32, ptr %51, align 16
  %53 = load i32, ptr %1, align 4
  %54 = call i32 (ptr, ...) @errmsg_internal(ptr noundef @.str, i32 noundef %52, i32 noundef %53)
  call void @errfinish(ptr noundef @.str.1, i32 noundef 136, ptr noundef @__func__.InitCatalogCache)
  br label %55

55:                                               ; preds = %47, %45, %43
  unreachable

56:                                               ; No predecessors!
  br label %57

57:                                               ; preds = %56
  br label %58

58:                                               ; preds = %57, %5
  %59 = load i32, ptr %1, align 4
  %60 = sext i32 %59 to i64
  %61 = getelementptr inbounds [85 x %struct.cachedesc], ptr @cacheinfo, i64 0, i64 %60
  %62 = getelementptr inbounds nuw %struct.cachedesc, ptr %61, i32 0, i32 0
  %63 = load i32, ptr %62, align 16
  %64 = load i32, ptr @SysCacheRelationOidSize, align 4
  %65 = add i32 %64, 1
  store i32 %65, ptr @SysCacheRelationOidSize, align 4
  %66 = sext i32 %64 to i64
  %67 = getelementptr inbounds [85 x i32], ptr @SysCacheRelationOid, i64 0, i64 %66
  store i32 %63, ptr %67, align 4
  %68 = load i32, ptr %1, align 4
  %69 = sext i32 %68 to i64
  %70 = getelementptr inbounds [85 x %struct.cachedesc], ptr @cacheinfo, i64 0, i64 %69
  %71 = getelementptr inbounds nuw %struct.cachedesc, ptr %70, i32 0, i32 0
  %72 = load i32, ptr %71, align 16
  %73 = load i32, ptr @SysCacheSupportingRelOidSize, align 4
  %74 = add i32 %73, 1
  store i32 %74, ptr @SysCacheSupportingRelOidSize, align 4
  %75 = sext i32 %73 to i64
  %76 = getelementptr inbounds [170 x i32], ptr @SysCacheSupportingRelOid, i64 0, i64 %75
  store i32 %72, ptr %76, align 4
  %77 = load i32, ptr %1, align 4
  %78 = sext i32 %77 to i64
  %79 = getelementptr inbounds [85 x %struct.cachedesc], ptr @cacheinfo, i64 0, i64 %78
  %80 = getelementptr inbounds nuw %struct.cachedesc, ptr %79, i32 0, i32 1
  %81 = load i32, ptr %80, align 4
  %82 = load i32, ptr @SysCacheSupportingRelOidSize, align 4
  %83 = add i32 %82, 1
  store i32 %83, ptr @SysCacheSupportingRelOidSize, align 4
  %84 = sext i32 %82 to i64
  %85 = getelementptr inbounds [170 x i32], ptr @SysCacheSupportingRelOid, i64 0, i64 %84
  store i32 %81, ptr %85, align 4
  br label %86

86:                                               ; preds = %58
  %87 = load i32, ptr %1, align 4
  %88 = add i32 %87, 1
  store i32 %88, ptr %1, align 4
  br label %2, !llvm.loop !4

89:                                               ; preds = %2
  %90 = load i32, ptr @SysCacheRelationOidSize, align 4
  %91 = sext i32 %90 to i64
  call void @pg_qsort(ptr noundef @SysCacheRelationOid, i64 noundef %91, i64 noundef 4, ptr noundef @oid_compare)
  %92 = load i32, ptr @SysCacheRelationOidSize, align 4
  %93 = sext i32 %92 to i64
  %94 = call i64 @qunique(ptr noundef @SysCacheRelationOid, i64 noundef %93, i64 noundef 4, ptr noundef @oid_compare)
  %95 = trunc i64 %94 to i32
  store i32 %95, ptr @SysCacheRelationOidSize, align 4
  %96 = load i32, ptr @SysCacheSupportingRelOidSize, align 4
  %97 = sext i32 %96 to i64
  call void @pg_qsort(ptr noundef @SysCacheSupportingRelOid, i64 noundef %97, i64 noundef 4, ptr noundef @oid_compare)
  %98 = load i32, ptr @SysCacheSupportingRelOidSize, align 4
  %99 = sext i32 %98 to i64
  %100 = call i64 @qunique(ptr noundef @SysCacheSupportingRelOid, i64 noundef %99, i64 noundef 4, ptr noundef @oid_compare)
  %101 = trunc i64 %100 to i32
  store i32 %101, ptr @SysCacheSupportingRelOidSize, align 4
  store i8 1, ptr @CacheInitialized, align 1
  call void @llvm.lifetime.end.p0(i64 4, ptr %1) #6
  ret void
}