; Function Attrs: nounwind uwtable
define dso_local void @InitCatalogCache() local_unnamed_addr #0 {
  store i32 0, ptr @SysCacheSupportingRelOidSize, align 4
  store i32 0, ptr @SysCacheRelationOidSize, align 4
  br label %1

1:                                                ; preds = %0, %17
  %indvars.iv = phi i64 [ 0, %0 ], [ %indvars.iv.next, %17 ]
  %2 = getelementptr inbounds nuw [85 x %struct.cachedesc], ptr @cacheinfo, i64 0, i64 %indvars.iv
  %3 = load i32, ptr %2, align 16
  %4 = getelementptr inbounds nuw i8, ptr %2, i64 4
  %5 = load i32, ptr %4, align 4
  %6 = getelementptr inbounds nuw i8, ptr %2, i64 8
  %7 = load i32, ptr %6, align 8
  %8 = getelementptr inbounds nuw i8, ptr %2, i64 12
  %9 = getelementptr inbounds nuw i8, ptr %2, i64 28
  %10 = load i32, ptr %9, align 4
  %11 = trunc nuw nsw i64 %indvars.iv to i32
  %12 = tail call ptr @InitCatCache(i32 noundef %11, i32 noundef %3, i32 noundef %5, i32 noundef %7, ptr noundef nonnull %8, i32 noundef %10) #11
  %13 = getelementptr inbounds nuw [85 x ptr], ptr @SysCache, i64 0, i64 %indvars.iv
  store ptr %12, ptr %13, align 8
  %.not = icmp eq ptr %12, null
  br i1 %.not, label %14, label %17

14:                                               ; preds = %1
  %15 = tail call zeroext i1 @errstart_cold(i32 noundef 21, ptr noundef null) #12
  tail call void @llvm.assume(i1 %15)
  %16 = tail call i32 (ptr, ...) @errmsg_internal(ptr noundef nonnull @.str, i32 noundef %3, i32 noundef %11) #11
  tail call void @errfinish(ptr noundef nonnull @.str.1, i32 noundef 136, ptr noundef nonnull @__func__.InitCatalogCache) #11
  unreachable

17:                                               ; preds = %1
  %18 = load i32, ptr @SysCacheRelationOidSize, align 4
  %19 = add i32 %18, 1
  store i32 %19, ptr @SysCacheRelationOidSize, align 4
  %20 = sext i32 %18 to i64
  %21 = getelementptr inbounds [85 x i32], ptr @SysCacheRelationOid, i64 0, i64 %20
  store i32 %3, ptr %21, align 4
  %22 = load i32, ptr @SysCacheSupportingRelOidSize, align 4
  %23 = add i32 %22, 1
  %24 = sext i32 %22 to i64
  %25 = getelementptr inbounds [170 x i32], ptr @SysCacheSupportingRelOid, i64 0, i64 %24
  store i32 %3, ptr %25, align 4
  %26 = add i32 %22, 2
  store i32 %26, ptr @SysCacheSupportingRelOidSize, align 4
  %27 = sext i32 %23 to i64
  %28 = getelementptr inbounds [170 x i32], ptr @SysCacheSupportingRelOid, i64 0, i64 %27
  store i32 %5, ptr %28, align 4
  %indvars.iv.next = add nuw nsw i64 %indvars.iv, 1
  %exitcond.not = icmp eq i64 %indvars.iv.next, 85
  br i1 %exitcond.not, label %29, label %1, !llvm.loop !4

29:                                               ; preds = %17
  %30 = sext i32 %19 to i64
  tail call void @pg_qsort(ptr noundef nonnull @SysCacheRelationOid, i64 noundef %30, i64 noundef 4, ptr noundef nonnull @oid_compare) #11
  %31 = load i32, ptr @SysCacheRelationOidSize, align 4
  %32 = sext i32 %31 to i64
  %33 = icmp ult i32 %31, 2
  br i1 %33, label %qunique.exit, label %.preheader.i

.preheader.i:                                     ; preds = %29, %45
  %.02.i = phi i64 [ %.1.i, %45 ], [ 0, %29 ]
  %.0231.i = phi i64 [ %46, %45 ], [ 1, %29 ]
  %34 = shl i64 %.0231.i, 2
  %35 = getelementptr inbounds nuw i8, ptr @SysCacheRelationOid, i64 %34
  %36 = shl i64 %.02.i, 2
  %37 = getelementptr inbounds nuw i8, ptr @SysCacheRelationOid, i64 %36
  %38 = load i32, ptr %35, align 4
  %39 = load i32, ptr %37, align 4
  %.not.i = icmp eq i32 %38, %39
  br i1 %.not.i, label %45, label %40

40:                                               ; preds = %.preheader.i
  %41 = add i64 %.02.i, 1
  %.not29.i = icmp eq i64 %41, %.0231.i
  br i1 %.not29.i, label %45, label %42

42:                                               ; preds = %40
  %43 = shl i64 %41, 2
  %44 = getelementptr inbounds nuw i8, ptr @SysCacheRelationOid, i64 %43
  store i32 %38, ptr %44, align 4
  br label %45

45:                                               ; preds = %42, %40, %.preheader.i
  %.1.i = phi i64 [ %41, %42 ], [ %.0231.i, %40 ], [ %.02.i, %.preheader.i ]
  %46 = add nuw i64 %.0231.i, 1
  %exitcond.not.i = icmp eq i64 %46, %32
  br i1 %exitcond.not.i, label %47, label %.preheader.i, !llvm.loop !6

47:                                               ; preds = %45
  %48 = trunc i64 %.1.i to i32
  %49 = add i32 %48, 1
  br label %qunique.exit

qunique.exit:                                     ; preds = %29, %47
  %.024.i = phi i32 [ %49, %47 ], [ %31, %29 ]
  store i32 %.024.i, ptr @SysCacheRelationOidSize, align 4
  %50 = load i32, ptr @SysCacheSupportingRelOidSize, align 4
  %51 = sext i32 %50 to i64
  tail call void @pg_qsort(ptr noundef nonnull @SysCacheSupportingRelOid, i64 noundef %51, i64 noundef 4, ptr noundef nonnull @oid_compare) #11
  %52 = load i32, ptr @SysCacheSupportingRelOidSize, align 4
  %53 = sext i32 %52 to i64
  %54 = icmp ult i32 %52, 2
  br i1 %54, label %qunique.exit23, label %.preheader.i15

.preheader.i15:                                   ; preds = %qunique.exit, %66
  %.02.i16 = phi i64 [ %.1.i20, %66 ], [ 0, %qunique.exit ]
  %.0231.i17 = phi i64 [ %67, %66 ], [ 1, %qunique.exit ]
  %55 = shl i64 %.0231.i17, 2
  %56 = getelementptr inbounds nuw i8, ptr @SysCacheSupportingRelOid, i64 %55
  %57 = shl i64 %.02.i16, 2
  %58 = getelementptr inbounds nuw i8, ptr @SysCacheSupportingRelOid, i64 %57
  %59 = load i32, ptr %56, align 4
  %60 = load i32, ptr %58, align 4
  %.not.i18 = icmp eq i32 %59, %60
  br i1 %.not.i18, label %66, label %61

61:                                               ; preds = %.preheader.i15
  %62 = add i64 %.02.i16, 1
  %.not29.i19 = icmp eq i64 %62, %.0231.i17
  br i1 %.not29.i19, label %66, label %63

63:                                               ; preds = %61
  %64 = shl i64 %62, 2
  %65 = getelementptr inbounds nuw i8, ptr @SysCacheSupportingRelOid, i64 %64
  store i32 %59, ptr %65, align 4
  br label %66

66:                                               ; preds = %63, %61, %.preheader.i15
  %.1.i20 = phi i64 [ %62, %63 ], [ %.0231.i17, %61 ], [ %.02.i16, %.preheader.i15 ]
  %67 = add nuw i64 %.0231.i17, 1
  %exitcond.not.i21 = icmp eq i64 %67, %53
  br i1 %exitcond.not.i21, label %68, label %.preheader.i15, !llvm.loop !6

68:                                               ; preds = %66
  %69 = trunc i64 %.1.i20 to i32
  %70 = add i32 %69, 1
  br label %qunique.exit23

qunique.exit23:                                   ; preds = %qunique.exit, %68
  %.024.i22 = phi i32 [ %70, %68 ], [ %52, %qunique.exit ]
  store i32 %.024.i22, ptr @SysCacheSupportingRelOidSize, align 4
  ret void
}